ARM GAS  C:\Users\Julian\AppData\Local\Temp\ccCg7Tbi.s 			page 1


   1              		.cpu cortex-m0
   2              		.fpu softvfp
   3              		.eabi_attribute 20, 1
   4              		.eabi_attribute 21, 1
   5              		.eabi_attribute 23, 3
   6              		.eabi_attribute 24, 1
   7              		.eabi_attribute 25, 1
   8              		.eabi_attribute 26, 1
   9              		.eabi_attribute 30, 6
  10              		.eabi_attribute 34, 0
  11              		.eabi_attribute 18, 4
  12              		.code	16
  13              		.file	"app_UART.c"
  14              		.text
  15              	.Ltext0:
  16              		.cfi_sections	.debug_frame
  17              		.section	.text.HandleUartRxTraffic,"ax",%progbits
  18              		.align	2
  19              		.global	HandleUartRxTraffic
  20              		.code	16
  21              		.thumb_func
  22              		.type	HandleUartRxTraffic, %function
  23              	HandleUartRxTraffic:
  24              	.LFB37:
  25              		.file 1 "app_UART.c"
   1:app_UART.c    **** /*******************************************************************************
   2:app_UART.c    **** * File Name: app_UART.c
   3:app_UART.c    **** *
   4:app_UART.c    **** * Description:
   5:app_UART.c    **** *  Common BLE application code for client devices.
   6:app_UART.c    **** *
   7:app_UART.c    **** *******************************************************************************
   8:app_UART.c    **** * Copyright 2015, Cypress Semiconductor Corporation.  All rights reserved.
   9:app_UART.c    **** * You may use this file only in accordance with the license, terms, conditions,
  10:app_UART.c    **** * disclaimers, and limitations in the end user license agreement accompanying
  11:app_UART.c    **** * the software package with which this file was provided.
  12:app_UART.c    **** *******************************************************************************/
  13:app_UART.c    **** 
  14:app_UART.c    **** #include "app_UART.h"
  15:app_UART.c    **** 
  16:app_UART.c    **** /*******************************************************************************
  17:app_UART.c    **** * Function Name: HandleUartRxTraffic
  18:app_UART.c    **** ********************************************************************************
  19:app_UART.c    **** *
  20:app_UART.c    **** * Summary:
  21:app_UART.c    **** *  This function takes data from received notfications and pushes it to the 
  22:app_UART.c    **** *  UART TX buffer. 
  23:app_UART.c    **** *
  24:app_UART.c    **** * Parameters:
  25:app_UART.c    **** *  CYBLE_GATTC_HANDLE_VALUE_NTF_PARAM_T * - the notification parameter as  
  26:app_UART.c    **** *                                           recieved by the BLE stack
  27:app_UART.c    **** *
  28:app_UART.c    **** * Return:
  29:app_UART.c    **** *   None.
  30:app_UART.c    **** *
  31:app_UART.c    **** *******************************************************************************/
  32:app_UART.c    **** void HandleUartRxTraffic(CYBLE_GATTC_HANDLE_VALUE_NTF_PARAM_T *uartRxDataNotification)
ARM GAS  C:\Users\Julian\AppData\Local\Temp\ccCg7Tbi.s 			page 2


  33:app_UART.c    **** {
  26              		.loc 1 33 0
  27              		.cfi_startproc
  28 0000 80B5     		push	{r7, lr}
  29              		.cfi_def_cfa_offset 8
  30              		.cfi_offset 7, -8
  31              		.cfi_offset 14, -4
  32 0002 82B0     		sub	sp, sp, #8
  33              		.cfi_def_cfa_offset 16
  34 0004 00AF     		add	r7, sp, #0
  35              		.cfi_def_cfa_register 7
  36 0006 7860     		str	r0, [r7, #4]
  34:app_UART.c    ****     if(uartRxDataNotification->handleValPair.attrHandle == txCharHandle)
  37              		.loc 1 34 0
  38 0008 7B68     		ldr	r3, [r7, #4]
  39 000a 9A89     		ldrh	r2, [r3, #12]
  40 000c 074B     		ldr	r3, .L3
  41 000e 1B88     		ldrh	r3, [r3]
  42 0010 9A42     		cmp	r2, r3
  43 0012 07D1     		bne	.L1
  35:app_UART.c    ****     {
  36:app_UART.c    ****         UART_SpiUartPutArray(uartRxDataNotification->handleValPair.value.val, \
  44              		.loc 1 36 0
  45 0014 7B68     		ldr	r3, [r7, #4]
  46 0016 5A68     		ldr	r2, [r3, #4]
  37:app_UART.c    ****             (uint32) uartRxDataNotification->handleValPair.value.len);
  47              		.loc 1 37 0
  48 0018 7B68     		ldr	r3, [r7, #4]
  49 001a 1B89     		ldrh	r3, [r3, #8]
  36:app_UART.c    ****             (uint32) uartRxDataNotification->handleValPair.value.len);
  50              		.loc 1 36 0
  51 001c 101C     		mov	r0, r2
  52 001e 191C     		mov	r1, r3
  53 0020 FFF7FEFF 		bl	UART_SpiUartPutArray
  54              	.L1:
  38:app_UART.c    ****     }
  39:app_UART.c    **** }
  55              		.loc 1 39 0
  56 0024 BD46     		mov	sp, r7
  57 0026 02B0     		add	sp, sp, #8
  58              		@ sp needed
  59 0028 80BD     		pop	{r7, pc}
  60              	.L4:
  61 002a C046     		.align	2
  62              	.L3:
  63 002c 00000000 		.word	txCharHandle
  64              		.cfi_endproc
  65              	.LFE37:
  66              		.size	HandleUartRxTraffic, .-HandleUartRxTraffic
  67              		.section	.text.HandleUartTxTraffic,"ax",%progbits
  68              		.align	2
  69              		.global	HandleUartTxTraffic
  70              		.code	16
  71              		.thumb_func
  72              		.type	HandleUartTxTraffic, %function
  73              	HandleUartTxTraffic:
  74              	.LFB38:
ARM GAS  C:\Users\Julian\AppData\Local\Temp\ccCg7Tbi.s 			page 3


  40:app_UART.c    **** 
  41:app_UART.c    **** 
  42:app_UART.c    **** /*******************************************************************************
  43:app_UART.c    **** * Function Name: HandleUartTxTraffic
  44:app_UART.c    **** ********************************************************************************
  45:app_UART.c    **** *
  46:app_UART.c    **** * Summary:
  47:app_UART.c    **** *  This function takes data from UART RX buffer and pushes it to the server 
  48:app_UART.c    **** *  as Write Without Response command.
  49:app_UART.c    **** *
  50:app_UART.c    **** * Parameters:
  51:app_UART.c    **** *  None.
  52:app_UART.c    **** *
  53:app_UART.c    **** * Return:
  54:app_UART.c    **** *   None.
  55:app_UART.c    **** *
  56:app_UART.c    **** *******************************************************************************/
  57:app_UART.c    **** void HandleUartTxTraffic(void)
  58:app_UART.c    **** {
  75              		.loc 1 58 0
  76              		.cfi_startproc
  77 0000 F0B5     		push	{r4, r5, r6, r7, lr}
  78              		.cfi_def_cfa_offset 20
  79              		.cfi_offset 4, -20
  80              		.cfi_offset 5, -16
  81              		.cfi_offset 6, -12
  82              		.cfi_offset 7, -8
  83              		.cfi_offset 14, -4
  84 0002 8FB0     		sub	sp, sp, #60
  85              		.cfi_def_cfa_offset 80
  86 0004 00AF     		add	r7, sp, #0
  87              		.cfi_def_cfa_register 7
  88 0006 6846     		mov	r0, sp
  89 0008 7860     		str	r0, [r7, #4]
  59:app_UART.c    ****     uint8   index;
  60:app_UART.c    ****     uint8   uartTxData[mtuSize - 3];
  90              		.loc 1 60 0
  91 000a 7648     		ldr	r0, .L14
  92 000c 0088     		ldrh	r0, [r0]
  93 000e 0338     		sub	r0, r0, #3
  94 0010 431E     		sub	r3, r0, #1
  95 0012 9C46     		mov	ip, r3
  96 0014 6346     		mov	r3, ip
  97 0016 3B63     		str	r3, [r7, #48]
  98 0018 031C     		mov	r3, r0
  99 001a 3B61     		str	r3, [r7, #16]
 100 001c 0023     		mov	r3, #0
 101 001e 7B61     		str	r3, [r7, #20]
 102 0020 3B69     		ldr	r3, [r7, #16]
 103 0022 5B0F     		lsr	r3, r3, #29
 104 0024 9C46     		mov	ip, r3
 105 0026 7B69     		ldr	r3, [r7, #20]
 106 0028 DA00     		lsl	r2, r3, #3
 107 002a 6346     		mov	r3, ip
 108 002c 1A43     		orr	r2, r3
 109 002e 3B69     		ldr	r3, [r7, #16]
 110 0030 D900     		lsl	r1, r3, #3
ARM GAS  C:\Users\Julian\AppData\Local\Temp\ccCg7Tbi.s 			page 4


 111 0032 021C     		mov	r2, r0
 112 0034 151C     		mov	r5, r2
 113 0036 0022     		mov	r2, #0
 114 0038 161C     		mov	r6, r2
 115 003a 6A0F     		lsr	r2, r5, #29
 116 003c F300     		lsl	r3, r6, #3
 117 003e FB60     		str	r3, [r7, #12]
 118 0040 FB68     		ldr	r3, [r7, #12]
 119 0042 1343     		orr	r3, r2
 120 0044 FB60     		str	r3, [r7, #12]
 121 0046 EB00     		lsl	r3, r5, #3
 122 0048 BB60     		str	r3, [r7, #8]
 123 004a 031C     		mov	r3, r0
 124 004c 0733     		add	r3, r3, #7
 125 004e DB08     		lsr	r3, r3, #3
 126 0050 DB00     		lsl	r3, r3, #3
 127 0052 6A46     		mov	r2, sp
 128 0054 D31A     		sub	r3, r2, r3
 129 0056 9D46     		mov	sp, r3
 130 0058 6B46     		mov	r3, sp
 131 005a 0033     		add	r3, r3, #0
 132 005c FB62     		str	r3, [r7, #44]
  61:app_UART.c    ****     uint16  uartTxDataLength;
  62:app_UART.c    ****     
  63:app_UART.c    ****     static uint16 uartIdleCount = UART_IDLE_TIMEOUT;
  64:app_UART.c    ****     
  65:app_UART.c    ****     CYBLE_API_RESULT_T              bleApiResult;
  66:app_UART.c    ****     CYBLE_GATTC_WRITE_CMD_REQ_T     uartTxDataWriteCmd;
  67:app_UART.c    ****     
  68:app_UART.c    ****     uartTxDataLength = UART_SpiUartGetRxBufferSize();
 133              		.loc 1 68 0
 134 005e FFF7FEFF 		bl	UART_SpiUartGetRxBufferSize
 135 0062 021C     		mov	r2, r0
 136 0064 1C23     		mov	r3, #28
 137 0066 1821     		mov	r1, #24
 138 0068 8C46     		mov	ip, r1
 139 006a BC44     		add	ip, ip, r7
 140 006c 6344     		add	r3, r3, ip
 141 006e 1A80     		strh	r2, [r3]
  69:app_UART.c    ****     
  70:app_UART.c    ****     #ifdef FLOW_CONTROL
  71:app_UART.c    ****         if(uartTxDataLength >= (UART_UART_RX_BUFFER_SIZE - (UART_UART_RX_BUFFER_SIZE/2)))
 142              		.loc 1 71 0
 143 0070 1C23     		mov	r3, #28
 144 0072 1822     		mov	r2, #24
 145 0074 9446     		mov	ip, r2
 146 0076 BC44     		add	ip, ip, r7
 147 0078 6344     		add	r3, r3, ip
 148 007a 1B88     		ldrh	r3, [r3]
 149 007c 5A4A     		ldr	r2, .L14+4
 150 007e 9342     		cmp	r3, r2
 151 0080 02D9     		bls	.L6
  72:app_UART.c    ****         {
  73:app_UART.c    ****             DisableUartRxInt();
 152              		.loc 1 73 0
 153 0082 FFF7FEFF 		bl	DisableUartRxInt
 154 0086 01E0     		b	.L7
ARM GAS  C:\Users\Julian\AppData\Local\Temp\ccCg7Tbi.s 			page 5


 155              	.L6:
  74:app_UART.c    ****         }
  75:app_UART.c    ****         else
  76:app_UART.c    ****         {
  77:app_UART.c    ****             EnableUartRxInt();
 156              		.loc 1 77 0
 157 0088 FFF7FEFF 		bl	EnableUartRxInt
 158              	.L7:
  78:app_UART.c    ****         }
  79:app_UART.c    ****     #endif
  80:app_UART.c    ****     
  81:app_UART.c    ****     if((uartTxDataLength != 0))
 159              		.loc 1 81 0
 160 008c 1C23     		mov	r3, #28
 161 008e 1822     		mov	r2, #24
 162 0090 9446     		mov	ip, r2
 163 0092 BC44     		add	ip, ip, r7
 164 0094 6344     		add	r3, r3, ip
 165 0096 1B88     		ldrh	r3, [r3]
 166 0098 002B     		cmp	r3, #0
 167 009a 00D1     		bne	.LCB140
 168 009c 9DE0     		b	.L8	@long jump
 169              	.LCB140:
  82:app_UART.c    ****     {
  83:app_UART.c    ****         if(uartTxDataLength >= (mtuSize - 3))
 170              		.loc 1 83 0
 171 009e 1C23     		mov	r3, #28
 172 00a0 1822     		mov	r2, #24
 173 00a2 9446     		mov	ip, r2
 174 00a4 BC44     		add	ip, ip, r7
 175 00a6 6344     		add	r3, r3, ip
 176 00a8 1A88     		ldrh	r2, [r3]
 177 00aa 4E4B     		ldr	r3, .L14
 178 00ac 1B88     		ldrh	r3, [r3]
 179 00ae 033B     		sub	r3, r3, #3
 180 00b0 9A42     		cmp	r2, r3
 181 00b2 0DDB     		blt	.L9
  84:app_UART.c    ****         {
  85:app_UART.c    ****             uartIdleCount       = UART_IDLE_TIMEOUT;
 182              		.loc 1 85 0
 183 00b4 4D4B     		ldr	r3, .L14+8
 184 00b6 FA22     		mov	r2, #250
 185 00b8 9200     		lsl	r2, r2, #2
 186 00ba 1A80     		strh	r2, [r3]
  86:app_UART.c    ****             uartTxDataLength    = mtuSize - 3;
 187              		.loc 1 86 0
 188 00bc 494B     		ldr	r3, .L14
 189 00be 1A88     		ldrh	r2, [r3]
 190 00c0 1C23     		mov	r3, #28
 191 00c2 1821     		mov	r1, #24
 192 00c4 8C46     		mov	ip, r1
 193 00c6 BC44     		add	ip, ip, r7
 194 00c8 6344     		add	r3, r3, ip
 195 00ca 033A     		sub	r2, r2, #3
 196 00cc 1A80     		strh	r2, [r3]
 197 00ce 10E0     		b	.L10
 198              	.L9:
ARM GAS  C:\Users\Julian\AppData\Local\Temp\ccCg7Tbi.s 			page 6


  87:app_UART.c    ****         }
  88:app_UART.c    ****         else
  89:app_UART.c    ****         {
  90:app_UART.c    ****             if(--uartIdleCount == 0)
 199              		.loc 1 90 0
 200 00d0 464B     		ldr	r3, .L14+8
 201 00d2 1B88     		ldrh	r3, [r3]
 202 00d4 013B     		sub	r3, r3, #1
 203 00d6 9AB2     		uxth	r2, r3
 204 00d8 444B     		ldr	r3, .L14+8
 205 00da 1A80     		strh	r2, [r3]
 206 00dc 434B     		ldr	r3, .L14+8
 207 00de 1B88     		ldrh	r3, [r3]
 208 00e0 002B     		cmp	r3, #0
 209 00e2 06D0     		beq	.L10
  91:app_UART.c    ****             {
  92:app_UART.c    ****                 /*uartTxDataLength remains unchanged */;
  93:app_UART.c    ****             }
  94:app_UART.c    ****             else
  95:app_UART.c    ****             {
  96:app_UART.c    ****                 uartTxDataLength = 0;
 210              		.loc 1 96 0
 211 00e4 1C23     		mov	r3, #28
 212 00e6 1822     		mov	r2, #24
 213 00e8 9446     		mov	ip, r2
 214 00ea BC44     		add	ip, ip, r7
 215 00ec 6344     		add	r3, r3, ip
 216 00ee 0022     		mov	r2, #0
 217 00f0 1A80     		strh	r2, [r3]
 218              	.L10:
  97:app_UART.c    ****             }
  98:app_UART.c    ****         }
  99:app_UART.c    ****         
 100:app_UART.c    ****         if(0 != uartTxDataLength)
 219              		.loc 1 100 0
 220 00f2 1C23     		mov	r3, #28
 221 00f4 1822     		mov	r2, #24
 222 00f6 9446     		mov	ip, r2
 223 00f8 BC44     		add	ip, ip, r7
 224 00fa 6344     		add	r3, r3, ip
 225 00fc 1B88     		ldrh	r3, [r3]
 226 00fe 002B     		cmp	r3, #0
 227 0100 6BD0     		beq	.L8
 101:app_UART.c    ****         {
 102:app_UART.c    ****             uartIdleCount       = UART_IDLE_TIMEOUT;
 228              		.loc 1 102 0
 229 0102 3A4B     		ldr	r3, .L14+8
 230 0104 FA22     		mov	r2, #250
 231 0106 9200     		lsl	r2, r2, #2
 232 0108 1A80     		strh	r2, [r3]
 103:app_UART.c    ****             
 104:app_UART.c    ****             for(index = 0; index < uartTxDataLength; index++)
 233              		.loc 1 104 0
 234 010a 1F23     		mov	r3, #31
 235 010c 1822     		mov	r2, #24
 236 010e 9446     		mov	ip, r2
 237 0110 BC44     		add	ip, ip, r7
ARM GAS  C:\Users\Julian\AppData\Local\Temp\ccCg7Tbi.s 			page 7


 238 0112 6344     		add	r3, r3, ip
 239 0114 0022     		mov	r2, #0
 240 0116 1A70     		strb	r2, [r3]
 241 0118 18E0     		b	.L11
 242              	.L12:
 105:app_UART.c    ****             {
 106:app_UART.c    ****                 uartTxData[index] = (uint8) UART_UartGetByte();
 243              		.loc 1 106 0 discriminator 3
 244 011a 1F23     		mov	r3, #31
 245 011c 1822     		mov	r2, #24
 246 011e 9446     		mov	ip, r2
 247 0120 BC44     		add	ip, ip, r7
 248 0122 6344     		add	r3, r3, ip
 249 0124 1C78     		ldrb	r4, [r3]
 250 0126 FFF7FEFF 		bl	UART_UartGetByte
 251 012a 031C     		mov	r3, r0
 252 012c DAB2     		uxtb	r2, r3
 253 012e FB6A     		ldr	r3, [r7, #44]
 254 0130 1A55     		strb	r2, [r3, r4]
 104:app_UART.c    ****             {
 255              		.loc 1 104 0 discriminator 3
 256 0132 1F23     		mov	r3, #31
 257 0134 1822     		mov	r2, #24
 258 0136 9446     		mov	ip, r2
 259 0138 BC44     		add	ip, ip, r7
 260 013a 6344     		add	r3, r3, ip
 261 013c 1A78     		ldrb	r2, [r3]
 262 013e 1F23     		mov	r3, #31
 263 0140 1821     		mov	r1, #24
 264 0142 8C46     		mov	ip, r1
 265 0144 BC44     		add	ip, ip, r7
 266 0146 6344     		add	r3, r3, ip
 267 0148 0132     		add	r2, r2, #1
 268 014a 1A70     		strb	r2, [r3]
 269              	.L11:
 104:app_UART.c    ****             {
 270              		.loc 1 104 0 is_stmt 0 discriminator 1
 271 014c 1F23     		mov	r3, #31
 272 014e 1822     		mov	r2, #24
 273 0150 9446     		mov	ip, r2
 274 0152 BC44     		add	ip, ip, r7
 275 0154 6344     		add	r3, r3, ip
 276 0156 1B78     		ldrb	r3, [r3]
 277 0158 9BB2     		uxth	r3, r3
 278 015a 1C22     		mov	r2, #28
 279 015c 1821     		mov	r1, #24
 280 015e 8C46     		mov	ip, r1
 281 0160 BC44     		add	ip, ip, r7
 282 0162 6244     		add	r2, r2, ip
 283 0164 1288     		ldrh	r2, [r2]
 284 0166 9A42     		cmp	r2, r3
 285 0168 D7D8     		bhi	.L12
 107:app_UART.c    ****             }
 108:app_UART.c    ****             
 109:app_UART.c    ****             uartTxDataWriteCmd.attrHandle = rxCharHandle;
 286              		.loc 1 109 0 is_stmt 1
 287 016a 214B     		ldr	r3, .L14+12
ARM GAS  C:\Users\Julian\AppData\Local\Temp\ccCg7Tbi.s 			page 8


 288 016c 1A88     		ldrh	r2, [r3]
 289 016e 1C23     		mov	r3, #28
 290 0170 FB18     		add	r3, r7, r3
 291 0172 1A81     		strh	r2, [r3, #8]
 110:app_UART.c    ****             uartTxDataWriteCmd.value.len  = uartTxDataLength;
 292              		.loc 1 110 0
 293 0174 1C23     		mov	r3, #28
 294 0176 FB18     		add	r3, r7, r3
 295 0178 1C22     		mov	r2, #28
 296 017a 1821     		mov	r1, #24
 297 017c 8C46     		mov	ip, r1
 298 017e BC44     		add	ip, ip, r7
 299 0180 6244     		add	r2, r2, ip
 300 0182 1288     		ldrh	r2, [r2]
 301 0184 9A80     		strh	r2, [r3, #4]
 111:app_UART.c    ****             uartTxDataWriteCmd.value.val  = uartTxData;           
 302              		.loc 1 111 0
 303 0186 FA6A     		ldr	r2, [r7, #44]
 304 0188 1C23     		mov	r3, #28
 305 018a FB18     		add	r3, r7, r3
 306 018c 1A60     		str	r2, [r3]
 112:app_UART.c    ****             
 113:app_UART.c    ****             #ifdef FLOW_CONTROL
 114:app_UART.c    ****                 DisableUartRxInt();
 307              		.loc 1 114 0
 308 018e FFF7FEFF 		bl	DisableUartRxInt
 309              	.L13:
 115:app_UART.c    ****             #endif
 116:app_UART.c    ****             
 117:app_UART.c    ****             do
 118:app_UART.c    ****             {
 119:app_UART.c    ****                 bleApiResult = CyBle_GattcWriteWithoutResponse(cyBle_connHandle, &uartTxDataWriteCm
 310              		.loc 1 119 0 discriminator 2
 311 0192 1223     		mov	r3, #18
 312 0194 1822     		mov	r2, #24
 313 0196 BA18     		add	r2, r7, r2
 314 0198 D418     		add	r4, r2, r3
 315 019a 164B     		ldr	r3, .L14+16
 316 019c 1C22     		mov	r2, #28
 317 019e B918     		add	r1, r7, r2
 318 01a0 1A78     		ldrb	r2, [r3]
 319 01a2 5B78     		ldrb	r3, [r3, #1]
 320 01a4 1B02     		lsl	r3, r3, #8
 321 01a6 1A43     		orr	r2, r3
 322 01a8 0023     		mov	r3, #0
 323 01aa 1204     		lsl	r2, r2, #16
 324 01ac 120C     		lsr	r2, r2, #16
 325 01ae 1B0C     		lsr	r3, r3, #16
 326 01b0 1B04     		lsl	r3, r3, #16
 327 01b2 1343     		orr	r3, r2
 328 01b4 181C     		mov	r0, r3
 329 01b6 FFF7FEFF 		bl	CyBle_GattcWriteWithoutResponse
 330 01ba 031C     		mov	r3, r0
 331 01bc 2380     		strh	r3, [r4]
 120:app_UART.c    ****                 CyBle_ProcessEvents();
 332              		.loc 1 120 0 discriminator 2
 333 01be FFF7FEFF 		bl	CyBle_ProcessEvents
ARM GAS  C:\Users\Julian\AppData\Local\Temp\ccCg7Tbi.s 			page 9


 121:app_UART.c    ****             }
 122:app_UART.c    ****             while((CYBLE_ERROR_OK != bleApiResult) && (CYBLE_STATE_CONNECTED == cyBle_state));
 334              		.loc 1 122 0 discriminator 2
 335 01c2 1223     		mov	r3, #18
 336 01c4 1822     		mov	r2, #24
 337 01c6 9446     		mov	ip, r2
 338 01c8 BC44     		add	ip, ip, r7
 339 01ca 6344     		add	r3, r3, ip
 340 01cc 1B88     		ldrh	r3, [r3]
 341 01ce 002B     		cmp	r3, #0
 342 01d0 03D0     		beq	.L8
 343              		.loc 1 122 0 is_stmt 0 discriminator 1
 344 01d2 094B     		ldr	r3, .L14+20
 345 01d4 1B78     		ldrb	r3, [r3]
 346 01d6 022B     		cmp	r3, #2
 347 01d8 DBD0     		beq	.L13
 348              	.L8:
 349 01da 7B68     		ldr	r3, [r7, #4]
 350 01dc 9D46     		mov	sp, r3
 123:app_UART.c    ****             
 124:app_UART.c    ****         }
 125:app_UART.c    ****     }
 126:app_UART.c    **** }
 351              		.loc 1 126 0 is_stmt 1
 352 01de BD46     		mov	sp, r7
 353 01e0 0FB0     		add	sp, sp, #60
 354              		@ sp needed
 355 01e2 F0BD     		pop	{r4, r5, r6, r7, pc}
 356              	.L15:
 357              		.align	2
 358              	.L14:
 359 01e4 00000000 		.word	mtuSize
 360 01e8 FF030000 		.word	1023
 361 01ec 00000000 		.word	uartIdleCount.7221
 362 01f0 00000000 		.word	rxCharHandle
 363 01f4 00000000 		.word	cyBle_connHandle
 364 01f8 00000000 		.word	cyBle_state
 365              		.cfi_endproc
 366              	.LFE38:
 367              		.size	HandleUartTxTraffic, .-HandleUartTxTraffic
 368              		.section	.text.DisableUartRxInt,"ax",%progbits
 369              		.align	2
 370              		.global	DisableUartRxInt
 371              		.code	16
 372              		.thumb_func
 373              		.type	DisableUartRxInt, %function
 374              	DisableUartRxInt:
 375              	.LFB39:
 127:app_UART.c    **** 
 128:app_UART.c    **** /*****************************************************************************************
 129:app_UART.c    **** * Function Name: DisableUartRxInt
 130:app_UART.c    **** ******************************************************************************************
 131:app_UART.c    **** *
 132:app_UART.c    **** * Summary:
 133:app_UART.c    **** *  This function disables the UART RX interrupt.
 134:app_UART.c    **** *
 135:app_UART.c    **** * Parameters:
ARM GAS  C:\Users\Julian\AppData\Local\Temp\ccCg7Tbi.s 			page 10


 136:app_UART.c    **** *   None.
 137:app_UART.c    **** *
 138:app_UART.c    **** * Return:
 139:app_UART.c    **** *   None.
 140:app_UART.c    **** *
 141:app_UART.c    **** *****************************************************************************************/
 142:app_UART.c    **** void DisableUartRxInt(void)
 143:app_UART.c    **** {
 376              		.loc 1 143 0
 377              		.cfi_startproc
 378 0000 80B5     		push	{r7, lr}
 379              		.cfi_def_cfa_offset 8
 380              		.cfi_offset 7, -8
 381              		.cfi_offset 14, -4
 382 0002 00AF     		add	r7, sp, #0
 383              		.cfi_def_cfa_register 7
 144:app_UART.c    ****     UART_INTR_RX_MASK_REG &= ~UART_RX_INTR_MASK;  
 384              		.loc 1 144 0
 385 0004 034B     		ldr	r3, .L17
 386 0006 034A     		ldr	r2, .L17
 387 0008 1268     		ldr	r2, [r2]
 388 000a 0421     		mov	r1, #4
 389 000c 8A43     		bic	r2, r1
 390 000e 1A60     		str	r2, [r3]
 145:app_UART.c    **** }
 391              		.loc 1 145 0
 392 0010 BD46     		mov	sp, r7
 393              		@ sp needed
 394 0012 80BD     		pop	{r7, pc}
 395              	.L18:
 396              		.align	2
 397              	.L17:
 398 0014 C80F2440 		.word	1076105160
 399              		.cfi_endproc
 400              	.LFE39:
 401              		.size	DisableUartRxInt, .-DisableUartRxInt
 402              		.section	.text.EnableUartRxInt,"ax",%progbits
 403              		.align	2
 404              		.global	EnableUartRxInt
 405              		.code	16
 406              		.thumb_func
 407              		.type	EnableUartRxInt, %function
 408              	EnableUartRxInt:
 409              	.LFB40:
 146:app_UART.c    **** 
 147:app_UART.c    **** /*****************************************************************************************
 148:app_UART.c    **** * Function Name: EnableUartRxInt
 149:app_UART.c    **** ******************************************************************************************
 150:app_UART.c    **** *
 151:app_UART.c    **** * Summary:
 152:app_UART.c    **** *  This function enables the UART RX interrupt.
 153:app_UART.c    **** *
 154:app_UART.c    **** * Parameters:
 155:app_UART.c    **** *   None.
 156:app_UART.c    **** *
 157:app_UART.c    **** * Return:
 158:app_UART.c    **** *   None.
ARM GAS  C:\Users\Julian\AppData\Local\Temp\ccCg7Tbi.s 			page 11


 159:app_UART.c    **** *
 160:app_UART.c    **** *****************************************************************************************/
 161:app_UART.c    **** void EnableUartRxInt(void)
 162:app_UART.c    **** {
 410              		.loc 1 162 0
 411              		.cfi_startproc
 412 0000 80B5     		push	{r7, lr}
 413              		.cfi_def_cfa_offset 8
 414              		.cfi_offset 7, -8
 415              		.cfi_offset 14, -4
 416 0002 00AF     		add	r7, sp, #0
 417              		.cfi_def_cfa_register 7
 163:app_UART.c    ****     UART_INTR_RX_MASK_REG |= UART_RX_INTR_MASK;  
 418              		.loc 1 163 0
 419 0004 034B     		ldr	r3, .L20
 420 0006 034A     		ldr	r2, .L20
 421 0008 1268     		ldr	r2, [r2]
 422 000a 0421     		mov	r1, #4
 423 000c 0A43     		orr	r2, r1
 424 000e 1A60     		str	r2, [r3]
 164:app_UART.c    **** }
 425              		.loc 1 164 0
 426 0010 BD46     		mov	sp, r7
 427              		@ sp needed
 428 0012 80BD     		pop	{r7, pc}
 429              	.L21:
 430              		.align	2
 431              	.L20:
 432 0014 C80F2440 		.word	1076105160
 433              		.cfi_endproc
 434              	.LFE40:
 435              		.size	EnableUartRxInt, .-EnableUartRxInt
 436              		.data
 437              		.align	1
 438              		.type	uartIdleCount.7221, %object
 439              		.size	uartIdleCount.7221, 2
 440              	uartIdleCount.7221:
 441 0000 E803     		.short	1000
 442              		.text
 443              	.Letext0:
 444              		.file 2 "Generated_Source\\PSoC4/cytypes.h"
 445              		.file 3 "Generated_Source\\PSoC4/BLE_Stack.h"
 446              		.file 4 "Generated_Source\\PSoC4/BLE_StackGatt.h"
 447              		.file 5 "Generated_Source\\PSoC4/BLE_StackGattClient.h"
 448              		.file 6 "Generated_Source\\PSoC4/BLE_eventHandler.h"
 449              		.file 7 "app_UART.h"