ARM GAS  C:\Users\Julian\AppData\Local\Temp\ccTyPpth.s 			page 1


   1              		.cpu cortex-m0
   2              		.fpu softvfp
   3              		.eabi_attribute 20, 1
   4              		.eabi_attribute 21, 1
   5              		.eabi_attribute 23, 3
   6              		.eabi_attribute 24, 1
   7              		.eabi_attribute 25, 1
   8              		.eabi_attribute 26, 1
   9              		.eabi_attribute 30, 6
  10              		.eabi_attribute 34, 0
  11              		.eabi_attribute 18, 4
  12              		.code	16
  13              		.file	"main.c"
  14              		.text
  15              	.Ltext0:
  16              		.cfi_sections	.debug_frame
  17              		.section	.rodata
  18              		.align	2
  19              	.LC1:
  20 0000 0A0D2A2A 		.ascii	"\012\015*******************************************"
  20      2A2A2A2A 
  20      2A2A2A2A 
  20      2A2A2A2A 
  20      2A2A2A2A 
  21 002d 2A2A2A2A 		.ascii	"*****************\000"
  21      2A2A2A2A 
  21      2A2A2A2A 
  21      2A2A2A2A 
  21      2A00
  22 003f 00       		.align	2
  23              	.LC3:
  24 0040 0A0D2A2A 		.ascii	"\012\015***************** BLE UART example project "
  24      2A2A2A2A 
  24      2A2A2A2A 
  24      2A2A2A2A 
  24      2A2A2A20 
  25 006d 2A2A2A2A 		.ascii	"*****************\000"
  25      2A2A2A2A 
  25      2A2A2A2A 
  25      2A2A2A2A 
  25      2A00
  26 007f 00       		.align	2
  27              	.LC5:
  28 0080 0A0D2A2A 		.ascii	"\012\015*******************************************"
  28      2A2A2A2A 
  28      2A2A2A2A 
  28      2A2A2A2A 
  28      2A2A2A2A 
  29 00ad 2A2A2A2A 		.ascii	"*****************\012\015\000"
  29      2A2A2A2A 
  29      2A2A2A2A 
  29      2A2A2A2A 
  29      2A0A0D00 
  30 00c1 000000   		.align	2
  31              	.LC7:
  32 00c4 0A0D4465 		.ascii	"\012\015Device role \011: CENTRAL\000"
  32      76696365 
ARM GAS  C:\Users\Julian\AppData\Local\Temp\ccTyPpth.s 			page 2


  32      20726F6C 
  32      6520093A 
  32      2043454E 
  33 00dd 000000   		.align	2
  34              	.LC9:
  35 00e0 0A0D4C6F 		.ascii	"\012\015Low Power Mode \011: ENABLED\000"
  35      7720506F 
  35      77657220 
  35      4D6F6465 
  35      20093A20 
  36              		.align	2
  37              	.LC11:
  38 00fc 0A0D466C 		.ascii	"\012\015Flow Control \011: ENABLED\000"
  38      6F772043 
  38      6F6E7472 
  38      6F6C2009 
  38      3A20454E 
  39 0116 0000     		.align	2
  40              	.LC13:
  41 0118 0A0D0909 		.ascii	"\012\015\011\011CyBle stack initilization FAILED!!!"
  41      4379426C 
  41      65207374 
  41      61636B20 
  41      696E6974 
  42 013f 200A0D20 		.ascii	" \012\015 \000"
  42      00
  43              		.section	.text.main,"ax",%progbits
  44              		.align	2
  45              		.global	main
  46              		.code	16
  47              		.thumb_func
  48              		.type	main, %function
  49              	main:
  50              	.LFB37:
  51              		.file 1 "main.c"
   1:main.c        **** /*******************************************************************************
   2:main.c        **** * File Name: main.c
   3:main.c        **** *
   4:main.c        **** * Version: 1.0
   5:main.c        **** *
   6:main.c        **** * Description:
   7:main.c        **** *  BLE example project that works as a BLE to UART bridge, using 
   8:main.c        **** *  Cypress's BLE component APIs and application layer callback. 
   9:main.c        **** *  This project demostrates a custom service usage for BLE to UART  
  10:main.c        **** *  bridge in a CENTRAL role.
  11:main.c        **** *
  12:main.c        **** * References:
  13:main.c        **** *  BLUETOOTH SPECIFICATION Version 4.1
  14:main.c        **** *
  15:main.c        **** * Hardware Dependency:
  16:main.c        **** *  (1) CY8CKIT-042 BLE
  17:main.c        **** *  (2) An external UART transciever (if flow control is enabled) 
  18:main.c        **** *
  19:main.c        **** ********************************************************************************
  20:main.c        **** * Copyright 2015, Cypress Semiconductor Corporation.  All rights reserved.
  21:main.c        **** * You may use this file only in accordance with the license, terms, conditions,
  22:main.c        **** * disclaimers, and limitations in the end user license agreement accompanying
ARM GAS  C:\Users\Julian\AppData\Local\Temp\ccTyPpth.s 			page 3


  23:main.c        **** * the software package with which this file was provided.
  24:main.c        **** *******************************************************************************/
  25:main.c        **** 
  26:main.c        **** #include "main.h"
  27:main.c        **** 
  28:main.c        **** int main()
  29:main.c        **** {
  52              		.loc 1 29 0
  53              		.cfi_startproc
  54 0000 90B5     		push	{r4, r7, lr}
  55              		.cfi_def_cfa_offset 12
  56              		.cfi_offset 4, -12
  57              		.cfi_offset 7, -8
  58              		.cfi_offset 14, -4
  59 0002 83B0     		sub	sp, sp, #12
  60              		.cfi_def_cfa_offset 24
  61 0004 00AF     		add	r7, sp, #0
  62              		.cfi_def_cfa_register 7
  30:main.c        ****     #ifdef LOW_POWER_MODE    
  31:main.c        ****         CYBLE_LP_MODE_T         lpMode;
  32:main.c        ****         CYBLE_BLESS_STATE_T     blessState;
  33:main.c        ****     #endif
  34:main.c        ****     
  35:main.c        ****     CYBLE_API_RESULT_T      bleApiResult;
  36:main.c        ****    
  37:main.c        ****     CyGlobalIntEnable; 
  63              		.loc 1 37 0
  64              	@ 37 "main.c" 1
  65 0006 62B6     		CPSIE   i
  66              	@ 0 "" 2
  38:main.c        ****     
  39:main.c        ****     /* Start UART and BLE component and display project information */
  40:main.c        ****     UART_Start();   
  67              		.loc 1 40 0
  68              		.code	16
  69 0008 FFF7FEFF 		bl	UART_Start
  41:main.c        ****     bleApiResult = CyBle_Start(AppCallBack); 
  70              		.loc 1 41 0
  71 000c BC1D     		add	r4, r7, #6
  72 000e 404B     		ldr	r3, .L15
  73 0010 181C     		mov	r0, r3
  74 0012 FFF7FEFF 		bl	CyBle_Start
  75 0016 031C     		mov	r3, r0
  76 0018 2380     		strh	r3, [r4]
  42:main.c        ****     
  43:main.c        ****     if(bleApiResult == CYBLE_ERROR_OK)
  77              		.loc 1 43 0
  78 001a BB1D     		add	r3, r7, #6
  79 001c 1B88     		ldrh	r3, [r3]
  80 001e 002B     		cmp	r3, #0
  81 0020 1AD1     		bne	.L2
  44:main.c        ****     {
  45:main.c        ****         #ifdef PRINT_MESSAGE_LOG
  46:main.c        ****             UART_UartPutString("\n\r************************************************************");
  82              		.loc 1 46 0
  83 0022 3C4B     		ldr	r3, .L15+4
  84 0024 181C     		mov	r0, r3
ARM GAS  C:\Users\Julian\AppData\Local\Temp\ccTyPpth.s 			page 4


  85 0026 FFF7FEFF 		bl	UART_UartPutString
  47:main.c        ****             UART_UartPutString("\n\r***************** BLE UART example project *****************");
  86              		.loc 1 47 0
  87 002a 3B4B     		ldr	r3, .L15+8
  88 002c 181C     		mov	r0, r3
  89 002e FFF7FEFF 		bl	UART_UartPutString
  48:main.c        ****             UART_UartPutString("\n\r************************************************************\n\
  90              		.loc 1 48 0
  91 0032 3A4B     		ldr	r3, .L15+12
  92 0034 181C     		mov	r0, r3
  93 0036 FFF7FEFF 		bl	UART_UartPutString
  49:main.c        ****             UART_UartPutString("\n\rDevice role \t: CENTRAL");
  94              		.loc 1 49 0
  95 003a 394B     		ldr	r3, .L15+16
  96 003c 181C     		mov	r0, r3
  97 003e FFF7FEFF 		bl	UART_UartPutString
  50:main.c        ****             
  51:main.c        ****             #ifdef LOW_POWER_MODE
  52:main.c        ****                 UART_UartPutString("\n\rLow Power Mode \t: ENABLED");
  98              		.loc 1 52 0
  99 0042 384B     		ldr	r3, .L15+20
 100 0044 181C     		mov	r0, r3
 101 0046 FFF7FEFF 		bl	UART_UartPutString
  53:main.c        ****             #else
  54:main.c        ****                 UART_UartPutString("\n\rLow Power Mode \t: DISABLED");
  55:main.c        ****             #endif
  56:main.c        ****             
  57:main.c        ****             #ifdef FLOW_CONTROL
  58:main.c        ****                 UART_UartPutString("\n\rFlow Control \t: ENABLED");  
 102              		.loc 1 58 0
 103 004a 374B     		ldr	r3, .L15+24
 104 004c 181C     		mov	r0, r3
 105 004e FFF7FEFF 		bl	UART_UartPutString
  59:main.c        ****             #else
  60:main.c        ****                 UART_UartPutString("\n\rFlow Control \t: DISABLED");
  61:main.c        ****             #endif
  62:main.c        ****             
  63:main.c        ****         #endif
  64:main.c        ****     }
  65:main.c        ****     else
  66:main.c        ****     {
  67:main.c        ****         #ifdef PRINT_MESSAGE_LOG   
  68:main.c        ****             UART_UartPutString("\n\r\t\tCyBle stack initilization FAILED!!! \n\r ");
  69:main.c        ****         #endif
  70:main.c        ****         
  71:main.c        ****         /* Enter infinite loop */
  72:main.c        ****         while(1);
  73:main.c        ****     }
  74:main.c        ****     
  75:main.c        ****     CyBle_ProcessEvents();
 106              		.loc 1 75 0
 107 0052 FFF7FEFF 		bl	CyBle_ProcessEvents
 108 0056 04E0     		b	.L14
 109              	.L2:
  68:main.c        ****         #endif
 110              		.loc 1 68 0
 111 0058 344B     		ldr	r3, .L15+28
ARM GAS  C:\Users\Julian\AppData\Local\Temp\ccTyPpth.s 			page 5


 112 005a 181C     		mov	r0, r3
 113 005c FFF7FEFF 		bl	UART_UartPutString
 114              	.L4:
  72:main.c        ****     }
 115              		.loc 1 72 0 discriminator 1
 116 0060 FEE7     		b	.L4
 117              	.L14:
  76:main.c        ****     
  77:main.c        ****     /***************************************************************************
  78:main.c        ****     * Main polling loop
  79:main.c        ****     ***************************************************************************/
  80:main.c        ****     while(1)
  81:main.c        ****     {               
  82:main.c        ****         #ifdef LOW_POWER_MODE
  83:main.c        ****             
  84:main.c        ****             if((CyBle_GetState() != CYBLE_STATE_INITIALIZING) && (CyBle_GetState() != CYBLE_STATE_D
 118              		.loc 1 84 0
 119 0062 334B     		ldr	r3, .L15+32
 120 0064 1B78     		ldrb	r3, [r3]
 121 0066 012B     		cmp	r3, #1
 122 0068 4DD0     		beq	.L5
 123              		.loc 1 84 0 is_stmt 0 discriminator 1
 124 006a 314B     		ldr	r3, .L15+32
 125 006c 1B78     		ldrb	r3, [r3]
 126 006e 052B     		cmp	r3, #5
 127 0070 49D0     		beq	.L5
  85:main.c        ****             {
  86:main.c        ****                 /* Enter DeepSleep mode between connection intervals */
  87:main.c        ****                 
  88:main.c        ****                 lpMode = CyBle_EnterLPM(CYBLE_BLESS_DEEPSLEEP);
 128              		.loc 1 88 0 is_stmt 1
 129 0072 7C1D     		add	r4, r7, #5
 130 0074 0320     		mov	r0, #3
 131 0076 FFF7FEFF 		bl	CyBle_EnterLPM
 132 007a 031C     		mov	r3, r0
 133 007c 2370     		strb	r3, [r4]
  89:main.c        ****                 CyGlobalIntDisable;
 134              		.loc 1 89 0
 135              	@ 89 "main.c" 1
 136 007e 72B6     		CPSID   i
 137              	@ 0 "" 2
  90:main.c        ****                 blessState = CyBle_GetBleSsState();
 138              		.loc 1 90 0
 139              		.code	16
 140 0080 3C1D     		add	r4, r7, #4
 141 0082 FFF7FEFF 		bl	CyBle_GetBleSsState
 142 0086 031C     		mov	r3, r0
 143 0088 2370     		strb	r3, [r4]
  91:main.c        **** 
  92:main.c        ****                 if(lpMode == CYBLE_BLESS_DEEPSLEEP) 
 144              		.loc 1 92 0
 145 008a 7B1D     		add	r3, r7, #5
 146 008c 1B78     		ldrb	r3, [r3]
 147 008e 032B     		cmp	r3, #3
 148 0090 1DD1     		bne	.L6
  93:main.c        ****                 {   
  94:main.c        ****                     if((blessState == CYBLE_BLESS_STATE_ECO_ON || blessState == CYBLE_BLESS_STATE_D
ARM GAS  C:\Users\Julian\AppData\Local\Temp\ccTyPpth.s 			page 6


 149              		.loc 1 94 0
 150 0092 3B1D     		add	r3, r7, #4
 151 0094 1B78     		ldrb	r3, [r3]
 152 0096 042B     		cmp	r3, #4
 153 0098 03D0     		beq	.L7
 154              		.loc 1 94 0 is_stmt 0 discriminator 1
 155 009a 3B1D     		add	r3, r7, #4
 156 009c 1B78     		ldrb	r3, [r3]
 157 009e 062B     		cmp	r3, #6
 158 00a0 2ED1     		bne	.L11
 159              	.L7:
  95:main.c        ****                             (UART_SpiUartGetTxBufferSize() + UART_GET_TX_FIFO_SR_VALID) == 0u)
 160              		.loc 1 95 0 is_stmt 1
 161 00a2 FFF7FEFF 		bl	UART_SpiUartGetTxBufferSize
 162 00a6 011C     		mov	r1, r0
 163 00a8 224B     		ldr	r3, .L15+36
 164 00aa 1A68     		ldr	r2, [r3]
 165 00ac 8023     		mov	r3, #128
 166 00ae 1B02     		lsl	r3, r3, #8
 167 00b0 1340     		and	r3, r2
 168 00b2 01D0     		beq	.L9
 169              		.loc 1 95 0 is_stmt 0 discriminator 1
 170 00b4 0123     		mov	r3, #1
 171 00b6 00E0     		b	.L10
 172              	.L9:
 173              		.loc 1 95 0 discriminator 2
 174 00b8 0023     		mov	r3, #0
 175              	.L10:
 176              		.loc 1 95 0 discriminator 4
 177 00ba CB18     		add	r3, r1, r3
  94:main.c        ****                             (UART_SpiUartGetTxBufferSize() + UART_GET_TX_FIFO_SR_VALID) == 0u)
 178              		.loc 1 94 0 is_stmt 1 discriminator 4
 179 00bc 002B     		cmp	r3, #0
 180 00be 1FD1     		bne	.L11
  96:main.c        ****                     {
  97:main.c        ****                         #ifdef FLOW_CONTROL
  98:main.c        ****                         EnableUartRxInt();
 181              		.loc 1 98 0
 182 00c0 FFF7FEFF 		bl	EnableUartRxInt
  99:main.c        ****                         #endif
 100:main.c        ****                         
 101:main.c        ****                         CySysPmSleep();
 183              		.loc 1 101 0
 184 00c4 FFF7FEFF 		bl	CySysPmSleep
 102:main.c        ****                         
 103:main.c        ****                         #ifdef FLOW_CONTROL
 104:main.c        ****                         DisableUartRxInt();
 185              		.loc 1 104 0
 186 00c8 FFF7FEFF 		bl	DisableUartRxInt
 187 00cc 18E0     		b	.L11
 188              	.L6:
 105:main.c        ****                         #endif
 106:main.c        ****                     }
 107:main.c        ****                 }
 108:main.c        ****                 else
 109:main.c        ****                 {
 110:main.c        ****                     if((blessState != CYBLE_BLESS_STATE_EVENT_CLOSE) && \
ARM GAS  C:\Users\Julian\AppData\Local\Temp\ccTyPpth.s 			page 7


 189              		.loc 1 110 0
 190 00ce 3B1D     		add	r3, r7, #4
 191 00d0 1B78     		ldrb	r3, [r3]
 192 00d2 022B     		cmp	r3, #2
 193 00d4 14D0     		beq	.L11
 111:main.c        ****                             (UART_SpiUartGetTxBufferSize() + UART_GET_TX_FIFO_SR_VALID) == 0u)
 194              		.loc 1 111 0
 195 00d6 FFF7FEFF 		bl	UART_SpiUartGetTxBufferSize
 196 00da 011C     		mov	r1, r0
 197 00dc 154B     		ldr	r3, .L15+36
 198 00de 1A68     		ldr	r2, [r3]
 199 00e0 8023     		mov	r3, #128
 200 00e2 1B02     		lsl	r3, r3, #8
 201 00e4 1340     		and	r3, r2
 202 00e6 01D0     		beq	.L12
 203              		.loc 1 111 0 is_stmt 0 discriminator 1
 204 00e8 0123     		mov	r3, #1
 205 00ea 00E0     		b	.L13
 206              	.L12:
 207              		.loc 1 111 0 discriminator 2
 208 00ec 0023     		mov	r3, #0
 209              	.L13:
 210              		.loc 1 111 0 discriminator 4
 211 00ee CB18     		add	r3, r1, r3
 110:main.c        ****                             (UART_SpiUartGetTxBufferSize() + UART_GET_TX_FIFO_SR_VALID) == 0u)
 212              		.loc 1 110 0 is_stmt 1 discriminator 4
 213 00f0 002B     		cmp	r3, #0
 214 00f2 05D1     		bne	.L11
 112:main.c        ****                     {
 113:main.c        ****                         #ifdef FLOW_CONTROL
 114:main.c        ****                         EnableUartRxInt();
 215              		.loc 1 114 0
 216 00f4 FFF7FEFF 		bl	EnableUartRxInt
 115:main.c        ****                         #endif
 116:main.c        ****                         
 117:main.c        ****                         CySysPmSleep();
 217              		.loc 1 117 0
 218 00f8 FFF7FEFF 		bl	CySysPmSleep
 118:main.c        ****                         
 119:main.c        ****                         #ifdef FLOW_CONTROL
 120:main.c        ****                         DisableUartRxInt();
 219              		.loc 1 120 0
 220 00fc FFF7FEFF 		bl	DisableUartRxInt
 221              	.L11:
 121:main.c        ****                         #endif
 122:main.c        ****                     }
 123:main.c        ****                 }
 124:main.c        ****                 CyGlobalIntEnable;
 222              		.loc 1 124 0
 223              	@ 124 "main.c" 1
 224 0100 62B6     		CPSIE   i
 225              	@ 0 "" 2
 125:main.c        ****                 
 126:main.c        ****                 /* Handle advertising led blinking */
 127:main.c        ****                 HandleLeds();
 226              		.loc 1 127 0
 227              		.code	16
ARM GAS  C:\Users\Julian\AppData\Local\Temp\ccTyPpth.s 			page 8


 228 0102 FFF7FEFF 		bl	HandleLeds
 229              	.L5:
 128:main.c        ****             }
 129:main.c        ****             
 130:main.c        ****         #else
 131:main.c        ****             HandleLeds();
 132:main.c        ****         #endif
 133:main.c        ****         
 134:main.c        ****         /*******************************************************************
 135:main.c        ****         *  Process all pending BLE events in the stack
 136:main.c        ****         *******************************************************************/      
 137:main.c        ****         HandleBleProcessing();
 230              		.loc 1 137 0
 231 0106 FFF7FEFF 		bl	HandleBleProcessing
 138:main.c        ****         CyBle_ProcessEvents();
 232              		.loc 1 138 0
 233 010a FFF7FEFF 		bl	CyBle_ProcessEvents
 139:main.c        ****     }
 234              		.loc 1 139 0
 235 010e A8E7     		b	.L14
 236              	.L16:
 237              		.align	2
 238              	.L15:
 239 0110 00000000 		.word	AppCallBack
 240 0114 00000000 		.word	.LC1
 241 0118 40000000 		.word	.LC3
 242 011c 80000000 		.word	.LC5
 243 0120 C4000000 		.word	.LC7
 244 0124 E0000000 		.word	.LC9
 245 0128 FC000000 		.word	.LC11
 246 012c 18010000 		.word	.LC13
 247 0130 00000000 		.word	cyBle_state
 248 0134 08022440 		.word	1076101640
 249              		.cfi_endproc
 250              	.LFE37:
 251              		.size	main, .-main
 252              		.text
 253              	.Letext0:
 254              		.file 2 "Generated_Source\\PSoC4/cytypes.h"
 255              		.file 3 "Generated_Source\\PSoC4/BLE_Stack.h"
 256              		.file 4 "Generated_Source\\PSoC4/BLE_eventHandler.h"